; Function Attrs: nounwind uwtable
define noalias nonnull ptr @l_Lean_Name_hash___override___boxed(ptr noundef %0) #0 {
  %2 = ptrtoint ptr %0 to i64
  %3 = and i64 %2, 1
  %.not.i.i = icmp eq i64 %3, 0
  br i1 %.not.i.i, label %7, label %l_Lean_Name_hash___override.exit.thread

l_Lean_Name_hash___override.exit.thread:          ; preds = %1
  %4 = and i64 %2, 8589934590
  %5 = icmp eq i64 %4, 0
  %6 = getelementptr inbounds nuw i8, ptr %0, i64 24
  %.0.in.i4 = select i1 %5, ptr @l_Lean_Name_hash___override___closed__1, ptr %6
  %.0.i5 = load i64, ptr %.0.in.i4, align 8, !tbaa !17
  br label %lean_dec.exit

7:                                                ; preds = %1
  %8 = getelementptr i8, ptr %0, i64 4
  %.val.i.i = load i32, ptr %8, align 4
  %9 = icmp ult i32 %.val.i.i, 16777216
  %10 = getelementptr inbounds nuw i8, ptr %0, i64 24
  %.0.in.i = select i1 %9, ptr @l_Lean_Name_hash___override___closed__1, ptr %10
  %.0.i = load i64, ptr %.0.in.i, align 8, !tbaa !17
  %11 = load i32, ptr %0, align 4, !tbaa !4
  %12 = icmp sgt i32 %11, 1
  br i1 %12, label %13, label %15, !prof !9

13:                                               ; preds = %7
  %14 = add nsw i32 %11, -1
  store i32 %14, ptr %0, align 4, !tbaa !4
  br label %lean_dec.exit

15:                                               ; preds = %7
  %.not.i = icmp eq i32 %11, 0
  br i1 %.not.i, label %lean_dec.exit, label %16

16:                                               ; preds = %15
  tail call void @lean_dec_ref_cold(ptr noundef nonnull %0) #11
  br label %lean_dec.exit

lean_dec.exit:                                    ; preds = %16, %15, %13, %l_Lean_Name_hash___override.exit.thread
  %.0.i6 = phi i64 [ %.0.i5, %l_Lean_Name_hash___override.exit.thread ], [ %.0.i, %13 ], [ %.0.i, %15 ], [ %.0.i, %16 ]
  tail call void @lean_inc_heartbeat() #11
  %17 = tail call noalias ptr @mi_malloc_small(i64 noundef 16) #11
  %18 = icmp eq ptr %17, null
  br i1 %18, label %19, label %lean_box_uint64.exit

19:                                               ; preds = %lean_dec.exit
  tail call void @lean_internal_panic_out_of_memory() #12
  unreachable

lean_box_uint64.exit:                             ; preds = %lean_dec.exit
  %20 = getelementptr inbounds nuw i8, ptr %17, i64 4
  store i32 1, ptr %17, align 4, !tbaa !4
  store i32 16, ptr %20, align 4
  %21 = getelementptr inbounds nuw i8, ptr %17, i64 8
  store i64 %.0.i6, ptr %21, align 8, !tbaa !17
  ret ptr %17
}